; Function Attrs: nounwind uwtable
define ptr @l_Array_forIn_x27Unsafe_loop___at_Lean_Meta_Grind_Arith_Cutsat_getBestUpper_x3f___spec__4___boxed(ptr noundef readonly captures(none) %0) local_unnamed_addr #1 {
  %2 = load ptr, ptr %0, align 8, !tbaa !11
  %3 = getelementptr inbounds nuw i8, ptr %0, i64 8
  %4 = load ptr, ptr %3, align 8, !tbaa !11
  %5 = getelementptr inbounds nuw i8, ptr %0, i64 16
  %6 = load ptr, ptr %5, align 8, !tbaa !11
  %7 = getelementptr inbounds nuw i8, ptr %0, i64 24
  %8 = load ptr, ptr %7, align 8, !tbaa !11
  %9 = getelementptr inbounds nuw i8, ptr %0, i64 32
  %10 = load ptr, ptr %9, align 8, !tbaa !11
  %11 = getelementptr inbounds nuw i8, ptr %0, i64 40
  %12 = load ptr, ptr %11, align 8, !tbaa !11
  %13 = getelementptr inbounds nuw i8, ptr %0, i64 48
  %14 = load ptr, ptr %13, align 8, !tbaa !11
  %15 = getelementptr inbounds nuw i8, ptr %0, i64 56
  %16 = load ptr, ptr %15, align 8, !tbaa !11
  %17 = getelementptr inbounds nuw i8, ptr %0, i64 64
  %18 = load ptr, ptr %17, align 8, !tbaa !11
  %19 = getelementptr inbounds nuw i8, ptr %0, i64 72
  %20 = load ptr, ptr %19, align 8, !tbaa !11
  %21 = getelementptr inbounds nuw i8, ptr %0, i64 80
  %22 = load ptr, ptr %21, align 8, !tbaa !11
  %23 = getelementptr inbounds nuw i8, ptr %0, i64 88
  %24 = load ptr, ptr %23, align 8, !tbaa !11
  %25 = getelementptr inbounds nuw i8, ptr %0, i64 96
  %26 = load ptr, ptr %25, align 8, !tbaa !11
  %27 = getelementptr inbounds nuw i8, ptr %0, i64 104
  %28 = load ptr, ptr %27, align 8, !tbaa !11
  %29 = getelementptr inbounds nuw i8, ptr %0, i64 112
  %30 = load ptr, ptr %29, align 8, !tbaa !11
  %31 = getelementptr inbounds nuw i8, ptr %0, i64 120
  %32 = load ptr, ptr %31, align 8, !tbaa !11
  %33 = getelementptr inbounds nuw i8, ptr %0, i64 128
  %34 = load ptr, ptr %33, align 8, !tbaa !11
  %35 = getelementptr i8, ptr %12, i64 8
  %.val85 = load i64, ptr %35, align 8, !tbaa !13
  %36 = ptrtoint ptr %12 to i64
  %37 = and i64 %36, 1
  %.not = icmp eq i64 %37, 0
  br i1 %.not, label %38, label %lean_dec.exit60

38:                                               ; preds = %1
  %39 = load i32, ptr %12, align 4, !tbaa !6
  %40 = icmp sgt i32 %39, 1
  br i1 %40, label %41, label %43, !prof !5

41:                                               ; preds = %38
  %42 = add nsw i32 %39, -1
  store i32 %42, ptr %12, align 4, !tbaa !6
  br label %lean_dec.exit60

43:                                               ; preds = %38
  %.not.i = icmp eq i32 %39, 0
  br i1 %.not.i, label %lean_dec.exit60, label %44

44:                                               ; preds = %43
  tail call void @lean_dec_ref_cold(ptr noundef nonnull %12) #6
  br label %lean_dec.exit60

lean_dec.exit60:                                  ; preds = %44, %43, %41, %1
  %45 = getelementptr i8, ptr %14, i64 8
  %.val = load i64, ptr %45, align 8, !tbaa !13
  %46 = ptrtoint ptr %14 to i64
  %47 = and i64 %46, 1
  %.not86 = icmp eq i64 %47, 0
  br i1 %.not86, label %48, label %lean_dec.exit59

48:                                               ; preds = %lean_dec.exit60
  %49 = load i32, ptr %14, align 4, !tbaa !6
  %50 = icmp sgt i32 %49, 1
  br i1 %50, label %51, label %53, !prof !5

51:                                               ; preds = %48
  %52 = add nsw i32 %49, -1
  store i32 %52, ptr %14, align 4, !tbaa !6
  br label %lean_dec.exit59

53:                                               ; preds = %48
  %.not.i61 = icmp eq i32 %49, 0
  br i1 %.not.i61, label %lean_dec.exit59, label %54

54:                                               ; preds = %53
  tail call void @lean_dec_ref_cold(ptr noundef nonnull %14) #6
  br label %lean_dec.exit59

lean_dec.exit59:                                  ; preds = %54, %53, %51, %lean_dec.exit60
  %55 = tail call ptr @l_Array_forIn_x27Unsafe_loop___at_Lean_Meta_Grind_Arith_Cutsat_getBestUpper_x3f___spec__4(ptr noundef %2, ptr poison, ptr poison, ptr noundef %8, ptr noundef %10, i64 noundef %.val85, i64 noundef %.val, ptr noundef %16, ptr noundef %18, ptr noundef %20, ptr noundef %22, ptr noundef %24, ptr noundef %26, ptr noundef %28, ptr noundef %30, ptr noundef %32, ptr noundef %34)
  %56 = ptrtoint ptr %32 to i64
  %57 = and i64 %56, 1
  %.not87 = icmp eq i64 %57, 0
  br i1 %.not87, label %58, label %lean_dec.exit58

58:                                               ; preds = %lean_dec.exit59
  %59 = load i32, ptr %32, align 4, !tbaa !6
  %60 = icmp sgt i32 %59, 1
  br i1 %60, label %61, label %63, !prof !5

61:                                               ; preds = %58
  %62 = add nsw i32 %59, -1
  store i32 %62, ptr %32, align 4, !tbaa !6
  br label %lean_dec.exit58

63:                                               ; preds = %58
  %.not.i63 = icmp eq i32 %59, 0
  br i1 %.not.i63, label %lean_dec.exit58, label %64

64:                                               ; preds = %63
  tail call void @lean_dec_ref_cold(ptr noundef nonnull %32) #6
  br label %lean_dec.exit58

lean_dec.exit58:                                  ; preds = %64, %63, %61, %lean_dec.exit59
  %65 = ptrtoint ptr %30 to i64
  %66 = and i64 %65, 1
  %.not88 = icmp eq i64 %66, 0
  br i1 %.not88, label %67, label %lean_dec.exit57

67:                                               ; preds = %lean_dec.exit58
  %68 = load i32, ptr %30, align 4, !tbaa !6
  %69 = icmp sgt i32 %68, 1
  br i1 %69, label %70, label %72, !prof !5

70:                                               ; preds = %67
  %71 = add nsw i32 %68, -1
  store i32 %71, ptr %30, align 4, !tbaa !6
  br label %lean_dec.exit57

72:                                               ; preds = %67
  %.not.i65 = icmp eq i32 %68, 0
  br i1 %.not.i65, label %lean_dec.exit57, label %73

73:                                               ; preds = %72
  tail call void @lean_dec_ref_cold(ptr noundef nonnull %30) #6
  br label %lean_dec.exit57

lean_dec.exit57:                                  ; preds = %73, %72, %70, %lean_dec.exit58
  %74 = ptrtoint ptr %28 to i64
  %75 = and i64 %74, 1
  %.not89 = icmp eq i64 %75, 0
  br i1 %.not89, label %76, label %lean_dec.exit56

76:                                               ; preds = %lean_dec.exit57
  %77 = load i32, ptr %28, align 4, !tbaa !6
  %78 = icmp sgt i32 %77, 1
  br i1 %78, label %79, label %81, !prof !5

79:                                               ; preds = %76
  %80 = add nsw i32 %77, -1
  store i32 %80, ptr %28, align 4, !tbaa !6
  br label %lean_dec.exit56

81:                                               ; preds = %76
  %.not.i67 = icmp eq i32 %77, 0
  br i1 %.not.i67, label %lean_dec.exit56, label %82

82:                                               ; preds = %81
  tail call void @lean_dec_ref_cold(ptr noundef nonnull %28) #6
  br label %lean_dec.exit56

lean_dec.exit56:                                  ; preds = %82, %81, %79, %lean_dec.exit57
  %83 = ptrtoint ptr %26 to i64
  %84 = and i64 %83, 1
  %.not90 = icmp eq i64 %84, 0
  br i1 %.not90, label %85, label %lean_dec.exit55

85:                                               ; preds = %lean_dec.exit56
  %86 = load i32, ptr %26, align 4, !tbaa !6
  %87 = icmp sgt i32 %86, 1
  br i1 %87, label %88, label %90, !prof !5

88:                                               ; preds = %85
  %89 = add nsw i32 %86, -1
  store i32 %89, ptr %26, align 4, !tbaa !6
  br label %lean_dec.exit55

90:                                               ; preds = %85
  %.not.i69 = icmp eq i32 %86, 0
  br i1 %.not.i69, label %lean_dec.exit55, label %91

91:                                               ; preds = %90
  tail call void @lean_dec_ref_cold(ptr noundef nonnull %26) #6
  br label %lean_dec.exit55

lean_dec.exit55:                                  ; preds = %91, %90, %88, %lean_dec.exit56
  %92 = ptrtoint ptr %24 to i64
  %93 = and i64 %92, 1
  %.not91 = icmp eq i64 %93, 0
  br i1 %.not91, label %94, label %lean_dec.exit54

94:                                               ; preds = %lean_dec.exit55
  %95 = load i32, ptr %24, align 4, !tbaa !6
  %96 = icmp sgt i32 %95, 1
  br i1 %96, label %97, label %99, !prof !5

97:                                               ; preds = %94
  %98 = add nsw i32 %95, -1
  store i32 %98, ptr %24, align 4, !tbaa !6
  br label %lean_dec.exit54

99:                                               ; preds = %94
  %.not.i71 = icmp eq i32 %95, 0
  br i1 %.not.i71, label %lean_dec.exit54, label %100

100:                                              ; preds = %99
  tail call void @lean_dec_ref_cold(ptr noundef nonnull %24) #6
  br label %lean_dec.exit54

lean_dec.exit54:                                  ; preds = %100, %99, %97, %lean_dec.exit55
  %101 = ptrtoint ptr %22 to i64
  %102 = and i64 %101, 1
  %.not92 = icmp eq i64 %102, 0
  br i1 %.not92, label %103, label %lean_dec.exit53

103:                                              ; preds = %lean_dec.exit54
  %104 = load i32, ptr %22, align 4, !tbaa !6
  %105 = icmp sgt i32 %104, 1
  br i1 %105, label %106, label %108, !prof !5

106:                                              ; preds = %103
  %107 = add nsw i32 %104, -1
  store i32 %107, ptr %22, align 4, !tbaa !6
  br label %lean_dec.exit53

108:                                              ; preds = %103
  %.not.i73 = icmp eq i32 %104, 0
  br i1 %.not.i73, label %lean_dec.exit53, label %109

109:                                              ; preds = %108
  tail call void @lean_dec_ref_cold(ptr noundef nonnull %22) #6
  br label %lean_dec.exit53

lean_dec.exit53:                                  ; preds = %109, %108, %106, %lean_dec.exit54
  %110 = ptrtoint ptr %20 to i64
  %111 = and i64 %110, 1
  %.not93 = icmp eq i64 %111, 0
  br i1 %.not93, label %112, label %lean_dec.exit52

112:                                              ; preds = %lean_dec.exit53
  %113 = load i32, ptr %20, align 4, !tbaa !6
  %114 = icmp sgt i32 %113, 1
  br i1 %114, label %115, label %117, !prof !5

115:                                              ; preds = %112
  %116 = add nsw i32 %113, -1
  store i32 %116, ptr %20, align 4, !tbaa !6
  br label %lean_dec.exit52

117:                                              ; preds = %112
  %.not.i75 = icmp eq i32 %113, 0
  br i1 %.not.i75, label %lean_dec.exit52, label %118

118:                                              ; preds = %117
  tail call void @lean_dec_ref_cold(ptr noundef nonnull %20) #6
  br label %lean_dec.exit52

lean_dec.exit52:                                  ; preds = %118, %117, %115, %lean_dec.exit53
  %119 = ptrtoint ptr %18 to i64
  %120 = and i64 %119, 1
  %.not94 = icmp eq i64 %120, 0
  br i1 %.not94, label %121, label %lean_dec.exit51

121:                                              ; preds = %lean_dec.exit52
  %122 = load i32, ptr %18, align 4, !tbaa !6
  %123 = icmp sgt i32 %122, 1
  br i1 %123, label %124, label %126, !prof !5

124:                                              ; preds = %121
  %125 = add nsw i32 %122, -1
  store i32 %125, ptr %18, align 4, !tbaa !6
  br label %lean_dec.exit51

126:                                              ; preds = %121
  %.not.i77 = icmp eq i32 %122, 0
  br i1 %.not.i77, label %lean_dec.exit51, label %127

127:                                              ; preds = %126
  tail call void @lean_dec_ref_cold(ptr noundef nonnull %18) #6
  br label %lean_dec.exit51

lean_dec.exit51:                                  ; preds = %127, %126, %124, %lean_dec.exit52
  %128 = ptrtoint ptr %10 to i64
  %129 = and i64 %128, 1
  %.not95 = icmp eq i64 %129, 0
  br i1 %.not95, label %130, label %lean_dec.exit50

130:                                              ; preds = %lean_dec.exit51
  %131 = load i32, ptr %10, align 4, !tbaa !6
  %132 = icmp sgt i32 %131, 1
  br i1 %132, label %133, label %135, !prof !5

133:                                              ; preds = %130
  %134 = add nsw i32 %131, -1
  store i32 %134, ptr %10, align 4, !tbaa !6
  br label %lean_dec.exit50

135:                                              ; preds = %130
  %.not.i79 = icmp eq i32 %131, 0
  br i1 %.not.i79, label %lean_dec.exit50, label %136

136:                                              ; preds = %135
  tail call void @lean_dec_ref_cold(ptr noundef nonnull %10) #6
  br label %lean_dec.exit50

lean_dec.exit50:                                  ; preds = %136, %135, %133, %lean_dec.exit51
  %137 = ptrtoint ptr %6 to i64
  %138 = and i64 %137, 1
  %.not96 = icmp eq i64 %138, 0
  br i1 %.not96, label %139, label %lean_dec.exit49

139:                                              ; preds = %lean_dec.exit50
  %140 = load i32, ptr %6, align 4, !tbaa !6
  %141 = icmp sgt i32 %140, 1
  br i1 %141, label %142, label %144, !prof !5

142:                                              ; preds = %139
  %143 = add nsw i32 %140, -1
  store i32 %143, ptr %6, align 4, !tbaa !6
  br label %lean_dec.exit49

144:                                              ; preds = %139
  %.not.i81 = icmp eq i32 %140, 0
  br i1 %.not.i81, label %lean_dec.exit49, label %145

145:                                              ; preds = %144
  tail call void @lean_dec_ref_cold(ptr noundef nonnull %6) #6
  br label %lean_dec.exit49

lean_dec.exit49:                                  ; preds = %145, %144, %142, %lean_dec.exit50
  %146 = ptrtoint ptr %4 to i64
  %147 = and i64 %146, 1
  %.not97 = icmp eq i64 %147, 0
  br i1 %.not97, label %148, label %lean_dec.exit

148:                                              ; preds = %lean_dec.exit49
  %149 = load i32, ptr %4, align 4, !tbaa !6
  %150 = icmp sgt i32 %149, 1
  br i1 %150, label %151, label %153, !prof !5

151:                                              ; preds = %148
  %152 = add nsw i32 %149, -1
  store i32 %152, ptr %4, align 4, !tbaa !6
  br label %lean_dec.exit

153:                                              ; preds = %148
  %.not.i83 = icmp eq i32 %149, 0
  br i1 %.not.i83, label %lean_dec.exit, label %154

154:                                              ; preds = %153
  tail call void @lean_dec_ref_cold(ptr noundef nonnull %4) #6
  br label %lean_dec.exit

lean_dec.exit:                                    ; preds = %154, %153, %151, %lean_dec.exit49
  ret ptr %55
}